target datalayout = "e-m:e-p270:32:32-p271:32:32-p272:64:64-i64:64-i128:128-f80:128-n8:16:32:64-S128"
target triple = "x86_64-unknown-linux-gnu"

%"class.std::set.0" = type { %"class.std::_Rb_tree.1" }
%"class.std::_Rb_tree.1" = type { %"struct.std::_Rb_tree<QuantLib::Observer *, QuantLib::Observer *, std::_Identity<QuantLib::Observer *>, std::less<QuantLib::Observer *>>::_Rb_tree_impl" }
%"struct.std::_Rb_tree<QuantLib::Observer *, QuantLib::Observer *, std::_Identity<QuantLib::Observer *>, std::less<QuantLib::Observer *>>::_Rb_tree_impl" = type { [8 x i8], %"struct.std::_Rb_tree_header" }
%"struct.std::_Rb_tree_header" = type { %"struct.std::_Rb_tree_node_base", i64 }
%"struct.std::_Rb_tree_node_base" = type { i32, ptr, ptr, ptr }
%"class.std::set" = type { %"class.std::_Rb_tree" }
%"class.std::_Rb_tree" = type { %"struct.std::_Rb_tree<boost::shared_ptr<QuantLib::Observable>, boost::shared_ptr<QuantLib::Observable>, std::_Identity<boost::shared_ptr<QuantLib::Observable>>, std::less<boost::shared_ptr<QuantLib::Observable>>>::_Rb_tree_impl" }
%"struct.std::_Rb_tree<boost::shared_ptr<QuantLib::Observable>, boost::shared_ptr<QuantLib::Observable>, std::_Identity<boost::shared_ptr<QuantLib::Observable>>, std::less<boost::shared_ptr<QuantLib::Observable>>>::_Rb_tree_impl" = type { [8 x i8], %"struct.std::_Rb_tree_header" }
%"class.boost::detail::shared_count" = type { ptr }
%"class.QuantLib::Observable" = type { ptr, %"class.std::set.0" }
%"class.QuantLib::GsrProcess" = type { %"class.QuantLib::ForwardMeasureProcess1D", %"class.QuantLib::detail::GsrProcessCore", %"class.QuantLib::Date", %"class.QuantLib::DayCounter" }
%"class.QuantLib::ForwardMeasureProcess1D" = type { %"class.QuantLib::StochasticProcess1D", double }
%"class.QuantLib::StochasticProcess1D" = type { %"class.QuantLib::StochasticProcess", %"class.boost::shared_ptr.8" }
%"class.QuantLib::StochasticProcess" = type { %"class.QuantLib::Observer", %"class.QuantLib::Observable", %"class.boost::shared_ptr.7" }
%"class.QuantLib::Observer" = type { ptr, %"class.std::set" }
%"class.boost::shared_ptr.7" = type { ptr, %"class.boost::detail::shared_count" }
%"class.boost::shared_ptr.8" = type { ptr, %"class.boost::detail::shared_count" }
%"class.QuantLib::detail::GsrProcessCore" = type { ptr, ptr, ptr, %"class.std::map", %"class.std::map", %"class.std::map", %"class.std::map", %"class.std::map", %"class.std::map.14", double, %"class.std::vector" }
%"class.std::map" = type { %"class.std::_Rb_tree.9" }
%"class.std::_Rb_tree.9" = type { %"struct.std::_Rb_tree<std::pair<double, double>, std::pair<const std::pair<double, double>, double>, std::_Select1st<std::pair<const std::pair<double, double>, double>>, std::less<std::pair<double, double>>>::_Rb_tree_impl" }
%"struct.std::_Rb_tree<std::pair<double, double>, std::pair<const std::pair<double, double>, double>, std::_Select1st<std::pair<const std::pair<double, double>, double>>, std::less<std::pair<double, double>>>::_Rb_tree_impl" = type { [8 x i8], %"struct.std::_Rb_tree_header" }
%"class.std::map.14" = type { %"class.std::_Rb_tree.15" }
%"class.std::_Rb_tree.15" = type { %"struct.std::_Rb_tree<double, std::pair<const double, double>, std::_Select1st<std::pair<const double, double>>, std::less<double>>::_Rb_tree_impl" }
%"struct.std::_Rb_tree<double, std::pair<const double, double>, std::_Select1st<std::pair<const double, double>>, std::less<double>>::_Rb_tree_impl" = type { [8 x i8], %"struct.std::_Rb_tree_header" }
%"class.std::vector" = type { %"struct.std::_Bvector_base" }
%"struct.std::_Bvector_base" = type { %"struct.std::_Bvector_base<std::allocator<bool>>::_Bvector_impl" }
%"struct.std::_Bvector_base<std::allocator<bool>>::_Bvector_impl" = type { %"struct.std::_Bvector_base<std::allocator<bool>>::_Bvector_impl_data" }
%"struct.std::_Bvector_base<std::allocator<bool>>::_Bvector_impl_data" = type { %"struct.std::_Bit_iterator", %"struct.std::_Bit_iterator", ptr }
%"struct.std::_Bit_iterator" = type { %"struct.std::_Bit_iterator_base.base", [4 x i8] }
%"struct.std::_Bit_iterator_base.base" = type <{ ptr, i32 }>
%"class.QuantLib::Date" = type { i64 }
%"class.QuantLib::DayCounter" = type { %"class.boost::shared_ptr.6" }
%"class.boost::shared_ptr.6" = type { ptr, %"class.boost::detail::shared_count" }

; Function Attrs: inlinehint mustprogress uwtable
define linkonce_odr noundef double @_ZNK8QuantLib6detail14GsrProcessCore5sigmaEd(ptr noundef nonnull align 8 dereferenceable(360) %this, double noundef %t) #4 comdat align 2 {
entry:
  %this.addr = alloca ptr, align 8
  %t.addr = alloca double, align 8
  store ptr %this, ptr %this.addr, align 8, !tbaa !3
  store double %t, ptr %t.addr, align 8, !tbaa !12
  %this1 = load ptr, ptr %this.addr, align 8
  %0 = load double, ptr %t.addr, align 8, !tbaa !12
  %call = call noundef i32 @_ZNK8QuantLib6detail14GsrProcessCore10lowerIndexEd(ptr noundef nonnull align 8 dereferenceable(360) %this1, double noundef %0)
  %conv = sext i32 %call to i64
  %call2 = call noundef double @_ZNK8QuantLib6detail14GsrProcessCore3volEm(ptr noundef nonnull align 8 dereferenceable(360) %this1, i64 noundef %conv)
  ret double %call2
}

; Function Attrs: mustprogress uwtable
define noundef double @_ZNK8QuantLib10GsrProcess5sigmaEd(ptr noundef nonnull align 8 dereferenceable(536) %this, double noundef %t) #2 align 2 {
entry:
  %this.addr = alloca ptr, align 8
  %t.addr = alloca double, align 8
  store ptr %this, ptr %this.addr, align 8, !tbaa !3
  store double %t, ptr %t.addr, align 8, !tbaa !12
  %this1 = load ptr, ptr %this.addr, align 8
  %core_ = getelementptr inbounds nuw %"class.QuantLib::GsrProcess", ptr %this1, i32 0, i32 1
  %0 = load double, ptr %t.addr, align 8, !tbaa !12
  %call = call noundef double @_ZNK8QuantLib6detail14GsrProcessCore5sigmaEd(ptr noundef nonnull align 8 dereferenceable(360) %core_, double noundef %0)
  ret double %call
}

; Function Attrs: mustprogress uwtable
define noundef double @_ZNK8QuantLib10GsrProcess9diffusionEdd(ptr noundef nonnull align 8 dereferenceable(536) %this, double noundef %t, double noundef %0) unnamed_addr #2 align 2 {
entry:
  %this.addr = alloca ptr, align 8
  %t.addr = alloca double, align 8
  %.addr = alloca double, align 8
  store ptr %this, ptr %this.addr, align 8, !tbaa !3
  store double %t, ptr %t.addr, align 8, !tbaa !12
  store double %0, ptr %.addr, align 8, !tbaa !12
  %this1 = load ptr, ptr %this.addr, align 8
  %1 = load double, ptr %t.addr, align 8, !tbaa !12
  call void @_ZNK8QuantLib10GsrProcess6checkTEd(ptr noundef nonnull align 8 dereferenceable(536) %this1, double noundef %1)
  %2 = load double, ptr %t.addr, align 8, !tbaa !12
  %call = call noundef double @_ZNK8QuantLib10GsrProcess5sigmaEd(ptr noundef nonnull align 8 dereferenceable(536) %this1, double noundef %2)
  ret double %call
}