; Function Attrs: mustprogress uwtable
define noundef double @_ZNK8QuantLib10GsrProcess9diffusionEdd(ptr noundef nonnull align 8 dereferenceable(536) %this, double noundef %t, double %0) unnamed_addr #6 align 2 {
entry:
  tail call void @_ZNK8QuantLib10GsrProcess6checkTEd(ptr noundef nonnull align 8 dereferenceable(536) %this, double noundef %t)
  %core_.i = getelementptr inbounds nuw i8, ptr %this, i64 152
  %call.i.i = tail call noundef i32 @_ZNK8QuantLib6detail14GsrProcessCore10lowerIndexEd(ptr noundef nonnull align 8 dereferenceable(360) %core_.i, double noundef %t)
  %conv.i.i = sext i32 %call.i.i to i64
  %call2.i.i = tail call noundef double @_ZNK8QuantLib6detail14GsrProcessCore3volEm(ptr noundef nonnull align 8 dereferenceable(360) %core_.i, i64 noundef %conv.i.i)
  ret double %call2.i.i
}